; Function Attrs: nounwind uwtable
define internal i32 @gdsdb_release(ptr noundef %0, ptr readnone captures(none) %1, ptr noundef %2, i32 noundef %3) #0 {
  %5 = tail call i32 @tvb_reported_length_remaining(ptr noundef %0, i32 noundef %3) #3
  %6 = icmp slt i32 %5, 4
  br i1 %6, label %11, label %7

7:                                                ; preds = %4
  %8 = load i32, ptr @hf_gdsdb_release_object, align 4
  %9 = tail call ptr @proto_tree_add_item(ptr noundef %2, i32 noundef %8, ptr noundef %0, i32 noundef %3, i32 noundef 4, i32 noundef 0) #3
  %10 = tail call i32 @tvb_reported_length(ptr noundef %0) #3
  br label %11

11:                                               ; preds = %4, %7
  %.0 = phi i32 [ %10, %7 ], [ -1, %4 ]
  ret i32 %.0
}